target datalayout = "e-m:e-p270:32:32-p271:32:32-p272:64:64-i64:64-i128:128-f80:128-n8:16:32:64-S128"
target triple = "x86_64-pc-linux-gnu"

%struct.XYRemap = type { [4 x [4 x i16]], [4 x [4 x i16]], [4 x [4 x float]] }

; Function Attrs: inlinehint nounwind uwtable
define internal void @calculate_lanczos_coeffs(float noundef %0, ptr noundef %1) #8 {
  %3 = alloca float, align 4
  %4 = alloca ptr, align 8
  %5 = alloca float, align 4
  %6 = alloca i32, align 4
  %7 = alloca float, align 4
  %8 = alloca i32, align 4
  store float %0, ptr %3, align 4, !tbaa !99
  store ptr %1, ptr %4, align 8, !tbaa !188
  call void @llvm.lifetime.start.p0(i64 4, ptr %5) #13
  store float 0.000000e+00, ptr %5, align 4, !tbaa !99
  call void @llvm.lifetime.start.p0(i64 4, ptr %6) #13
  store i32 0, ptr %6, align 4, !tbaa !9
  br label %9

9:                                                ; preds = %53, %2
  %10 = load i32, ptr %6, align 4, !tbaa !9
  %11 = icmp slt i32 %10, 4
  br i1 %11, label %13, label %12

12:                                               ; preds = %9
  call void @llvm.lifetime.end.p0(i64 4, ptr %6) #13
  br label %56

13:                                               ; preds = %9
  call void @llvm.lifetime.start.p0(i64 4, ptr %7) #13
  %14 = load float, ptr %3, align 4, !tbaa !99
  %15 = load i32, ptr %6, align 4, !tbaa !9
  %16 = sitofp i32 %15 to float
  %17 = fsub nsz float %14, %16
  %18 = fadd nsz float %17, 1.000000e+00
  %19 = fpext nsz float %18 to double
  %20 = fmul nsz double 0x400921FB54442D18, %19
  %21 = fptrunc nsz double %20 to float
  store float %21, ptr %7, align 4, !tbaa !99
  %22 = load float, ptr %7, align 4, !tbaa !99
  %23 = fcmp nsz oeq float %22, 0.000000e+00
  br i1 %23, label %24, label %29

24:                                               ; preds = %13
  %25 = load ptr, ptr %4, align 8, !tbaa !188
  %26 = load i32, ptr %6, align 4, !tbaa !9
  %27 = sext i32 %26 to i64
  %28 = getelementptr inbounds float, ptr %25, i64 %27
  store float 1.000000e+00, ptr %28, align 4, !tbaa !99
  br label %45

29:                                               ; preds = %13
  %30 = load float, ptr %7, align 4, !tbaa !99
  %31 = call nsz float @llvm.sin.f32(float %30)
  %32 = load float, ptr %7, align 4, !tbaa !99
  %33 = fdiv nsz float %32, 2.000000e+00
  %34 = call nsz float @llvm.sin.f32(float %33)
  %35 = fmul nsz float %31, %34
  %36 = load float, ptr %7, align 4, !tbaa !99
  %37 = load float, ptr %7, align 4, !tbaa !99
  %38 = fmul nsz float %36, %37
  %39 = fdiv nsz float %38, 2.000000e+00
  %40 = fdiv nsz float %35, %39
  %41 = load ptr, ptr %4, align 8, !tbaa !188
  %42 = load i32, ptr %6, align 4, !tbaa !9
  %43 = sext i32 %42 to i64
  %44 = getelementptr inbounds float, ptr %41, i64 %43
  store float %40, ptr %44, align 4, !tbaa !99
  br label %45

45:                                               ; preds = %29, %24
  %46 = load ptr, ptr %4, align 8, !tbaa !188
  %47 = load i32, ptr %6, align 4, !tbaa !9
  %48 = sext i32 %47 to i64
  %49 = getelementptr inbounds float, ptr %46, i64 %48
  %50 = load float, ptr %49, align 4, !tbaa !99
  %51 = load float, ptr %5, align 4, !tbaa !99
  %52 = fadd nsz float %51, %50
  store float %52, ptr %5, align 4, !tbaa !99
  call void @llvm.lifetime.end.p0(i64 4, ptr %7) #13
  br label %53

53:                                               ; preds = %45
  %54 = load i32, ptr %6, align 4, !tbaa !9
  %55 = add nsw i32 %54, 1
  store i32 %55, ptr %6, align 4, !tbaa !9
  br label %9, !llvm.loop !258

56:                                               ; preds = %12
  call void @llvm.lifetime.start.p0(i64 4, ptr %8) #13
  store i32 0, ptr %8, align 4, !tbaa !9
  br label %57

57:                                               ; preds = %69, %56
  %58 = load i32, ptr %8, align 4, !tbaa !9
  %59 = icmp slt i32 %58, 4
  br i1 %59, label %61, label %60

60:                                               ; preds = %57
  call void @llvm.lifetime.end.p0(i64 4, ptr %8) #13
  br label %72

61:                                               ; preds = %57
  %62 = load float, ptr %5, align 4, !tbaa !99
  %63 = load ptr, ptr %4, align 8, !tbaa !188
  %64 = load i32, ptr %8, align 4, !tbaa !9
  %65 = sext i32 %64 to i64
  %66 = getelementptr inbounds float, ptr %63, i64 %65
  %67 = load float, ptr %66, align 4, !tbaa !99
  %68 = fdiv nsz float %67, %62
  store float %68, ptr %66, align 4, !tbaa !99
  br label %69

69:                                               ; preds = %61
  %70 = load i32, ptr %8, align 4, !tbaa !9
  %71 = add nsw i32 %70, 1
  store i32 %71, ptr %8, align 4, !tbaa !9
  br label %57, !llvm.loop !259

72:                                               ; preds = %60
  call void @llvm.lifetime.end.p0(i64 4, ptr %5) #13
  ret void
}

; Function Attrs: nounwind uwtable
define internal void @lanczos_kernel(float noundef %0, float noundef %1, ptr noundef %2, ptr noundef %3, ptr noundef %4, ptr noundef %5) #0 {
  %7 = alloca float, align 4
  %8 = alloca float, align 4
  %9 = alloca ptr, align 8
  %10 = alloca ptr, align 8
  %11 = alloca ptr, align 8
  %12 = alloca ptr, align 8
  %13 = alloca [4 x float], align 16
  %14 = alloca [4 x float], align 16
  %15 = alloca i32, align 4
  %16 = alloca i32, align 4
  %17 = alloca i32, align 4
  store float %0, ptr %7, align 4, !tbaa !99
  store float %1, ptr %8, align 4, !tbaa !99
  store ptr %2, ptr %9, align 8, !tbaa !134
  store ptr %3, ptr %10, align 8, !tbaa !21
  store ptr %4, ptr %11, align 8, !tbaa !21
  store ptr %5, ptr %12, align 8, !tbaa !21
  call void @llvm.lifetime.start.p0(i64 16, ptr %13) #13
  call void @llvm.lifetime.start.p0(i64 16, ptr %14) #13
  %18 = load float, ptr %7, align 4, !tbaa !99
  %19 = getelementptr inbounds [4 x float], ptr %13, i64 0, i64 0
  call void @calculate_lanczos_coeffs(float noundef %18, ptr noundef %19)
  %20 = load float, ptr %8, align 4, !tbaa !99
  %21 = getelementptr inbounds [4 x float], ptr %14, i64 0, i64 0
  call void @calculate_lanczos_coeffs(float noundef %20, ptr noundef %21)
  call void @llvm.lifetime.start.p0(i64 4, ptr %15) #13
  store i32 0, ptr %15, align 4, !tbaa !9
  br label %22

22:                                               ; preds = %87, %6
  %23 = load i32, ptr %15, align 4, !tbaa !9
  %24 = icmp slt i32 %23, 4
  br i1 %24, label %26, label %25

25:                                               ; preds = %22
  store i32 2, ptr %16, align 4
  call void @llvm.lifetime.end.p0(i64 4, ptr %15) #13
  br label %90

26:                                               ; preds = %22
  call void @llvm.lifetime.start.p0(i64 4, ptr %17) #13
  store i32 0, ptr %17, align 4, !tbaa !9
  br label %27

27:                                               ; preds = %83, %26
  %28 = load i32, ptr %17, align 4, !tbaa !9
  %29 = icmp slt i32 %28, 4
  br i1 %29, label %31, label %30

30:                                               ; preds = %27
  store i32 5, ptr %16, align 4
  call void @llvm.lifetime.end.p0(i64 4, ptr %17) #13
  br label %86

31:                                               ; preds = %27
  %32 = load ptr, ptr %9, align 8, !tbaa !134
  %33 = getelementptr inbounds nuw %struct.XYRemap, ptr %32, i32 0, i32 0
  %34 = load i32, ptr %15, align 4, !tbaa !9
  %35 = sext i32 %34 to i64
  %36 = getelementptr inbounds [4 x [4 x i16]], ptr %33, i64 0, i64 %35
  %37 = load i32, ptr %17, align 4, !tbaa !9
  %38 = sext i32 %37 to i64
  %39 = getelementptr inbounds [4 x i16], ptr %36, i64 0, i64 %38
  %40 = load i16, ptr %39, align 2, !tbaa !23
  %41 = load ptr, ptr %10, align 8, !tbaa !21
  %42 = load i32, ptr %15, align 4, !tbaa !9
  %43 = mul nsw i32 %42, 4
  %44 = load i32, ptr %17, align 4, !tbaa !9
  %45 = add nsw i32 %43, %44
  %46 = sext i32 %45 to i64
  %47 = getelementptr inbounds i16, ptr %41, i64 %46
  store i16 %40, ptr %47, align 2, !tbaa !23
  %48 = load ptr, ptr %9, align 8, !tbaa !134
  %49 = getelementptr inbounds nuw %struct.XYRemap, ptr %48, i32 0, i32 1
  %50 = load i32, ptr %15, align 4, !tbaa !9
  %51 = sext i32 %50 to i64
  %52 = getelementptr inbounds [4 x [4 x i16]], ptr %49, i64 0, i64 %51
  %53 = load i32, ptr %17, align 4, !tbaa !9
  %54 = sext i32 %53 to i64
  %55 = getelementptr inbounds [4 x i16], ptr %52, i64 0, i64 %54
  %56 = load i16, ptr %55, align 2, !tbaa !23
  %57 = load ptr, ptr %11, align 8, !tbaa !21
  %58 = load i32, ptr %15, align 4, !tbaa !9
  %59 = mul nsw i32 %58, 4
  %60 = load i32, ptr %17, align 4, !tbaa !9
  %61 = add nsw i32 %59, %60
  %62 = sext i32 %61 to i64
  %63 = getelementptr inbounds i16, ptr %57, i64 %62
  store i16 %56, ptr %63, align 2, !tbaa !23
  %64 = load i32, ptr %17, align 4, !tbaa !9
  %65 = sext i32 %64 to i64
  %66 = getelementptr inbounds [4 x float], ptr %13, i64 0, i64 %65
  %67 = load float, ptr %66, align 4, !tbaa !99
  %68 = load i32, ptr %15, align 4, !tbaa !9
  %69 = sext i32 %68 to i64
  %70 = getelementptr inbounds [4 x float], ptr %14, i64 0, i64 %69
  %71 = load float, ptr %70, align 4, !tbaa !99
  %72 = fmul nsz float %67, %71
  %73 = fmul nsz float %72, 1.638500e+04
  %74 = call i64 @llvm.lrint.i64.f32(float %73)
  %75 = trunc i64 %74 to i16
  %76 = load ptr, ptr %12, align 8, !tbaa !21
  %77 = load i32, ptr %15, align 4, !tbaa !9
  %78 = mul nsw i32 %77, 4
  %79 = load i32, ptr %17, align 4, !tbaa !9
  %80 = add nsw i32 %78, %79
  %81 = sext i32 %80 to i64
  %82 = getelementptr inbounds i16, ptr %76, i64 %81
  store i16 %75, ptr %82, align 2, !tbaa !23
  br label %83

83:                                               ; preds = %31
  %84 = load i32, ptr %17, align 4, !tbaa !9
  %85 = add nsw i32 %84, 1
  store i32 %85, ptr %17, align 4, !tbaa !9
  br label %27, !llvm.loop !178

86:                                               ; preds = %30
  br label %87

87:                                               ; preds = %86
  %88 = load i32, ptr %15, align 4, !tbaa !9
  %89 = add nsw i32 %88, 1
  store i32 %89, ptr %15, align 4, !tbaa !9
  br label %22, !llvm.loop !179

90:                                               ; preds = %25
  call void @llvm.lifetime.end.p0(i64 16, ptr %14) #13
  call void @llvm.lifetime.end.p0(i64 16, ptr %13) #13
  ret void
}