; Function Attrs: nofree norecurse nosync nounwind memory(argmem: readwrite) uwtable
define internal void @lanczos_kernel(float noundef %0, float noundef %1, ptr noundef readonly captures(none) %2, ptr noundef writeonly captures(none) %3, ptr noundef writeonly captures(none) %4, ptr noundef writeonly captures(none) %5) #1 {
  %7 = alloca [4 x float], align 16
  %8 = alloca [4 x float], align 16
  call void @llvm.lifetime.start.p0(i64 16, ptr nonnull %7) #16
  call void @llvm.lifetime.start.p0(i64 16, ptr nonnull %8) #16
  br label %9

9:                                                ; preds = %26, %6
  %indvars.iv.i = phi i64 [ 0, %6 ], [ %indvars.iv.next.i, %26 ]
  %.02024.i = phi float [ 0.000000e+00, %6 ], [ %28, %26 ]
  %10 = trunc nuw nsw i64 %indvars.iv.i to i32
  %11 = uitofp nneg i32 %10 to float
  %12 = fsub nsz float %0, %11
  %13 = fadd nsz float %12, 1.000000e+00
  %14 = fpext nsz float %13 to double
  %15 = fmul nsz double %14, 0x400921FB54442D18
  %16 = fptrunc nsz double %15 to float
  %17 = fcmp nsz oeq float %16, 0.000000e+00
  br i1 %17, label %26, label %18

18:                                               ; preds = %9
  %19 = tail call nsz float @llvm.sin.f32(float %16)
  %20 = fmul nsz float %16, 5.000000e-01
  %21 = tail call nsz float @llvm.sin.f32(float %20)
  %22 = fmul nsz float %19, %21
  %23 = fmul nsz float %16, %16
  %24 = fmul nsz float %23, 5.000000e-01
  %25 = fdiv nsz float %22, %24
  br label %26

26:                                               ; preds = %18, %9
  %.sink.i = phi float [ %25, %18 ], [ 1.000000e+00, %9 ]
  %27 = getelementptr inbounds nuw float, ptr %7, i64 %indvars.iv.i
  store float %.sink.i, ptr %27, align 4, !tbaa !49
  %28 = fadd nsz float %.02024.i, %.sink.i
  %indvars.iv.next.i = add nuw nsw i64 %indvars.iv.i, 1
  %exitcond.not.i = icmp eq i64 %indvars.iv.next.i, 4
  br i1 %exitcond.not.i, label %.preheader.i, label %9, !llvm.loop !165

.preheader.i:                                     ; preds = %26, %.preheader.i
  %indvars.iv27.i = phi i64 [ %indvars.iv.next28.i, %.preheader.i ], [ 0, %26 ]
  %29 = getelementptr inbounds nuw float, ptr %7, i64 %indvars.iv27.i
  %30 = load float, ptr %29, align 4, !tbaa !49
  %31 = fdiv nsz float %30, %28
  store float %31, ptr %29, align 4, !tbaa !49
  %indvars.iv.next28.i = add nuw nsw i64 %indvars.iv27.i, 1
  %exitcond30.not.i = icmp eq i64 %indvars.iv.next28.i, 4
  br i1 %exitcond30.not.i, label %calculate_lanczos_coeffs.exit, label %.preheader.i, !llvm.loop !166

calculate_lanczos_coeffs.exit:                    ; preds = %.preheader.i, %48
  %indvars.iv.i23 = phi i64 [ %indvars.iv.next.i26, %48 ], [ 0, %.preheader.i ]
  %.02024.i24 = phi float [ %50, %48 ], [ 0.000000e+00, %.preheader.i ]
  %32 = trunc nuw nsw i64 %indvars.iv.i23 to i32
  %33 = uitofp nneg i32 %32 to float
  %34 = fsub nsz float %1, %33
  %35 = fadd nsz float %34, 1.000000e+00
  %36 = fpext nsz float %35 to double
  %37 = fmul nsz double %36, 0x400921FB54442D18
  %38 = fptrunc nsz double %37 to float
  %39 = fcmp nsz oeq float %38, 0.000000e+00
  br i1 %39, label %48, label %40

40:                                               ; preds = %calculate_lanczos_coeffs.exit
  %41 = tail call nsz float @llvm.sin.f32(float %38)
  %42 = fmul nsz float %38, 5.000000e-01
  %43 = tail call nsz float @llvm.sin.f32(float %42)
  %44 = fmul nsz float %41, %43
  %45 = fmul nsz float %38, %38
  %46 = fmul nsz float %45, 5.000000e-01
  %47 = fdiv nsz float %44, %46
  br label %48

48:                                               ; preds = %40, %calculate_lanczos_coeffs.exit
  %.sink.i25 = phi float [ %47, %40 ], [ 1.000000e+00, %calculate_lanczos_coeffs.exit ]
  %49 = getelementptr inbounds nuw float, ptr %8, i64 %indvars.iv.i23
  store float %.sink.i25, ptr %49, align 4, !tbaa !49
  %50 = fadd nsz float %.02024.i24, %.sink.i25
  %indvars.iv.next.i26 = add nuw nsw i64 %indvars.iv.i23, 1
  %exitcond.not.i27 = icmp eq i64 %indvars.iv.next.i26, 4
  br i1 %exitcond.not.i27, label %.preheader.i28, label %calculate_lanczos_coeffs.exit, !llvm.loop !165

.preheader.i28:                                   ; preds = %48, %.preheader.i28
  %indvars.iv27.i29 = phi i64 [ %indvars.iv.next28.i30, %.preheader.i28 ], [ 0, %48 ]
  %51 = getelementptr inbounds nuw float, ptr %8, i64 %indvars.iv27.i29
  %52 = load float, ptr %51, align 4, !tbaa !49
  %53 = fdiv nsz float %52, %50
  store float %53, ptr %51, align 4, !tbaa !49
  %indvars.iv.next28.i30 = add nuw nsw i64 %indvars.iv27.i29, 1
  %exitcond30.not.i31 = icmp eq i64 %indvars.iv.next28.i30, 4
  br i1 %exitcond30.not.i31, label %calculate_lanczos_coeffs.exit32.preheader, label %.preheader.i28, !llvm.loop !166

calculate_lanczos_coeffs.exit32.preheader:        ; preds = %.preheader.i28
  %54 = getelementptr inbounds nuw i8, ptr %2, i64 32
  br label %.preheader

.preheader:                                       ; preds = %calculate_lanczos_coeffs.exit32.preheader, %calculate_lanczos_coeffs.exit32
  %indvars.iv38 = phi i64 [ 0, %calculate_lanczos_coeffs.exit32.preheader ], [ %indvars.iv.next39, %calculate_lanczos_coeffs.exit32 ]
  %55 = shl nuw nsw i64 %indvars.iv38, 2
  %56 = getelementptr inbounds nuw [4 x float], ptr %8, i64 0, i64 %indvars.iv38
  %57 = load float, ptr %56, align 4, !tbaa !49
  br label %59

58:                                               ; preds = %calculate_lanczos_coeffs.exit32
  call void @llvm.lifetime.end.p0(i64 16, ptr nonnull %8) #16
  call void @llvm.lifetime.end.p0(i64 16, ptr nonnull %7) #16
  ret void

calculate_lanczos_coeffs.exit32:                  ; preds = %59
  %indvars.iv.next39 = add nuw nsw i64 %indvars.iv38, 1
  %exitcond41.not = icmp eq i64 %indvars.iv.next39, 4
  br i1 %exitcond41.not, label %58, label %.preheader, !llvm.loop !167

59:                                               ; preds = %.preheader, %59
  %indvars.iv = phi i64 [ 0, %.preheader ], [ %indvars.iv.next, %59 ]
  %60 = getelementptr inbounds nuw [4 x [4 x i16]], ptr %2, i64 0, i64 %indvars.iv38, i64 %indvars.iv
  %61 = load i16, ptr %60, align 2, !tbaa !15
  %62 = add nuw nsw i64 %indvars.iv, %55
  %63 = getelementptr inbounds nuw i16, ptr %3, i64 %62
  store i16 %61, ptr %63, align 2, !tbaa !15
  %64 = getelementptr inbounds nuw [4 x [4 x i16]], ptr %54, i64 0, i64 %indvars.iv38, i64 %indvars.iv
  %65 = load i16, ptr %64, align 2, !tbaa !15
  %66 = getelementptr inbounds nuw i16, ptr %4, i64 %62
  store i16 %65, ptr %66, align 2, !tbaa !15
  %67 = getelementptr inbounds nuw [4 x float], ptr %7, i64 0, i64 %indvars.iv
  %68 = load float, ptr %67, align 4, !tbaa !49
  %69 = fmul nsz float %68, %57
  %70 = fmul nsz float %69, 1.638500e+04
  %71 = tail call i64 @llvm.lrint.i64.f32(float %70)
  %72 = trunc i64 %71 to i16
  %73 = getelementptr inbounds nuw i16, ptr %5, i64 %62
  store i16 %72, ptr %73, align 2, !tbaa !15
  %indvars.iv.next = add nuw nsw i64 %indvars.iv, 1
  %exitcond.not = icmp eq i64 %indvars.iv.next, 4
  br i1 %exitcond.not, label %calculate_lanczos_coeffs.exit32, label %59, !llvm.loop !168
}